; Function Attrs: mustprogress uwtable
define hidden noundef zeroext i1 @_ZNK3ue217ComponentSequence5emptyEv(ptr noundef nonnull readonly align 8 captures(none) dereferenceable(88) %0) unnamed_addr #0 align 2 {
  %2 = getelementptr inbounds nuw i8, ptr %0, i64 16
  %3 = load ptr, ptr %2, align 8
  %4 = getelementptr inbounds nuw i8, ptr %0, i64 24
  %5 = load ptr, ptr %4, align 8
  %.not11 = icmp eq ptr %3, %5
  br i1 %.not11, label %._crit_edge, label %.lr.ph

.lr.ph:                                           ; preds = %1, %.lr.ph
  %.sroa.08.012 = phi ptr [ %11, %.lr.ph ], [ %3, %1 ]
  %6 = load ptr, ptr %.sroa.08.012, align 8
  %7 = load ptr, ptr %6, align 8
  %8 = getelementptr inbounds nuw i8, ptr %7, i64 56
  %9 = load ptr, ptr %8, align 8
  %10 = tail call noundef zeroext i1 %9(ptr noundef nonnull align 8 dereferenceable(16) %6)
  %11 = getelementptr inbounds nuw i8, ptr %.sroa.08.012, i64 8
  %.not = icmp ne ptr %11, %5
  %or.cond.not = select i1 %10, i1 %.not, i1 false
  br i1 %or.cond.not, label %.lr.ph, label %._crit_edge

._crit_edge:                                      ; preds = %.lr.ph, %1
  %.not.lcssa = phi i1 [ true, %1 ], [ %10, %.lr.ph ]
  ret i1 %.not.lcssa
}